Certificate:
    Data:
        Version: 3 (0x2)
        Serial Number: 4 (0x4)
    Signature Algorithm: sha1WithRSAEncryption
        Issuer: CN=Elytron CA, ST=Elytron, C=UK/emailAddress=elytron@wildfly.org, O=Root Certificate Authority
        Validity
            Not Before: Jan 29 10:58:22 2016 GMT
            Not After : Jan 26 10:58:22 2026 GMT
        Subject: CN=Scarab, ST=Elytron, C=UK, O=Elytron, OU=Elytron
        Subject Public Key Info:
            Public Key Algorithm: rsaEncryption
                Public-Key: (2048 bit)
                Modulus:
                    00:a7:d8:c8:40:10:21:2c:71:16:df:e6:70:75:ff:
                    1e:85:cf:70:38:a0:7f:06:a1:dc:25:68:9c:1a:7d:
                    8f:a7:f4:37:15:44:31:ca:02:9e:3c:c8:66:68:c6:
                    0d:4c:a7:af:1b:68:e6:d8:95:ec:2b:57:48:92:2d:
                    5d:de:aa:b4:1f:eb:b0:f3:75:41:7e:04:25:b2:ef:
                    03:7e:9a:c4:60:83:5b:f7:33:d2:0a:88:6c:e8:d9:
                    52:66:e4:1d:32:a2:6f:ca:29:17:80:c5:a0:aa:2e:
                    ee:b3:45:5b:0d:7a:21:1c:c7:d4:76:f7:8f:1a:52:
                    f4:89:6e:92:ff:61:dc:cf:61:6f:5a:27:57:49:8d:
                    25:86:8e:cf:d1:77:07:61:00:17:f5:8f:cd:2e:03:
                    c5:df:a2:c8:83:f0:56:4f:21:2e:d5:ca:60:7a:c9:
                    06:0f:50:52:bd:fd:d3:ce:34:bf:7f:07:b8:54:42:
                    25:21:89:55:44:cf:dd:b5:f0:97:98:9a:5f:7a:ba:
                    a0:ce:ff:0c:35:66:48:16:bf:5b:48:77:67:12:e1:
                    78:67:18:5f:50:4b:6f:19:43:05:f0:6a:74:ce:fa:
                    4d:9a:15:f4:89:6b:58:a5:90:af:53:f4:18:64:e3:
                    10:43:18:8a:fd:e9:2d:22:a3:94:49:15:51:c6:bb:
                    66:1f
                Exponent: 65537 (0x10001)
        X509v3 extensions:
            X509v3 Basic Constraints: 
                CA:FALSE
    Signature Algorithm: sha1WithRSAEncryption
         c8:2b:52:d4:f2:76:d1:e6:7c:d1:0b:5a:1f:47:47:21:2d:2c:
         03:2c:ec:05:06:77:a8:5b:df:45:b2:cb:39:f5:80:51:38:5e:
         53:38:65:d3:f8:96:a5:8e:42:91:de:d0:c9:13:23:12:c9:af:
         da:bd:4d:87:2a:a0:47:8d:17:7d:4f:c8:1e:2b:54:78:13:9b:
         7c:62:40:84:1c:f7:d9:22:41:b9:cf:64:e3:cc:cb:7a:d8:a3:
         ec:8f:fb:cd:88:0e:d0:50:23:ec:0c:73:28:13:4a:7d:bc:b0:
         b4:07:a4:3c:87:4f:18:4f:83:8e:5a:84:29:81:99:0e:cc:29:
         13:e2:fc:ea:42:d2:2d:df:8c:58:01:1d:c8:55:ac:e9:17:93:
         0b:29:e0:33:b7:c0:62:9a:c0:d7:9f:17:8f:2c:d2:f9:1f:9d:
         d9:0b:79:32:2c:5a:d1:c2:f4:df:74:a6:4f:14:7e:4a:8a:53:
         c4:7e:5d:21:18:78:67:53:40:9f:e0:09:ff:62:09:79:87:03:
         c8:95:d8:af:9e:a5:a2:7b:7f:51:90:c1:cb:51:7c:cd:ce:f7:
         91:63:c7:d7:52:ad:76:a0:49:84:22:40:2e:dc:09:1e:b0:96:
         e3:6c:58:da:e4:ce:f4:5e:3d:47:c2:29:4c:f7:50:7b:27:00:
         18:56:3a:6c
-----BEGIN CERTIFICATE-----
MIIDWTCCAkGgAwIBAgIBBDANBgkqhkiG9w0BAQUFADB9MRMwEQYDVQQDDApFbHl0
cm9uIENBMRAwDgYDVQQIDAdFbHl0cm9uMQswCQYDVQQGEwJVSzEiMCAGCSqGSIb3
DQEJARYTZWx5dHJvbkB3aWxkZmx5Lm9yZzEjMCEGA1UECgwaUm9vdCBDZXJ0aWZp
Y2F0ZSBBdXRob3JpdHkwHhcNMTYwMTI5MTA1ODIyWhcNMjYwMTI2MTA1ODIyWjBU
MQ8wDQYDVQQDEwZTY2FyYWIxEDAOBgNVBAgTB0VseXRyb24xCzAJBgNVBAYTAlVL
MRAwDgYDVQQKEwdFbHl0cm9uMRAwDgYDVQQLEwdFbHl0cm9uMIIBIjANBgkqhkiG
9w0BAQEFAAOCAQ8AMIIBCgKCAQEAp9jIQBAhLHEW3+Zwdf8ehc9wOKB/BqHcJWic
Gn2Pp/Q3FUQxygKePMhmaMYNTKevG2jm2JXsK1dIki1d3qq0H+uw83VBfgQlsu8D
fprEYINb9zPSCohs6NlSZuQdMqJvyikXgMWgqi7us0VbDXohHMfUdvePGlL0iW6S
/2Hcz2FvWidXSY0lho7P0XcHYQAX9Y/NLgPF36LIg/BWTyEu1cpgeskGD1BSvf3T
zjS/fwe4VEIlIYlVRM/dtfCXmJpferqgzv8MNWZIFr9bSHdnEuF4ZxhfUEtvGUMF
8Gp0zvpNmhX0iWtYpZCvU/QYZOMQQxiK/ektIqOUSRVRxrtmHwIDAQABow0wCzAJ
BgNVHRMEAjAAMA0GCSqGSIb3DQEBBQUAA4IBAQDIK1LU8nbR5nzRC1ofR0chLSwD
LOwFBneoW99Fsss59YBROF5TOGXT+JaljkKR3tDJEyMSya/avU2HKqBHjRd9T8ge
K1R4E5t8YkCEHPfZIkG5z2TjzMt62KPsj/vNiA7QUCPsDHMoE0p9vLC0B6Q8h08Y
T4OOWoQpgZkOzCkT4vzqQtIt34xYAR3IVazpF5MLKeAzt8BimsDXnxePLNL5H53Z
C3kyLFrRwvTfdKZPFH5KilPEfl0hGHhnU0Cf4An/Ygl5hwPIldivnqWie39RkMHL
UXzNzveRY8fXUq12oEmEIkAu3AkesJbjbFja5M70Xj1HwilM91B7JwAYVjps
-----END CERTIFICATE-----
